; Listing generated by Microsoft (R) Optimizing Compiler Version 19.44.35217.0 

include listing.inc

INCLUDELIB LIBCMT
INCLUDELIB OLDNAMES

PUBLIC	ExPoolZeroingNativelySupported
;	COMDAT ExPoolZeroingNativelySupported
_BSS	SEGMENT
ExPoolZeroingNativelySupported DB 01H DUP (?)
_BSS	ENDS
_DATA	SEGMENT
COMM	driver_object:QWORD
COMM	dev:BYTE:010H
COMM	dos:BYTE:010H
_DATA	ENDS
PUBLIC	unload_driver
PUBLIC	ioctl_create
PUBLIC	ioctl_close
PUBLIC	io_device_control
PUBLIC	copy_memory
PUBLIC	get_module_handle
PUBLIC	init
PUBLIC	DriverEntry
PUBLIC	??_C@_1GE@BJPIKDMC@?$AA?2?$AAD?$AAe?$AAv?$AAi?$AAc?$AAe?$AA?2?$AA?$HL?$AAz?$AAx?$AAc?$AAh?$AAi?$AAg@FNODOBFM@ ;  ?? ::FNODOBFM::`string'
PUBLIC	??_C@_1GM@PKGLOKKB@?$AA?2?$AAD?$AAo?$AAs?$AAD?$AAe?$AAv?$AAi?$AAc?$AAe?$AAs?$AA?2?$AA?$HL?$AAz?$AAx@FNODOBFM@ ;  ?? ::FNODOBFM::`string'
PUBLIC	??_C@_1GE@HMGBIEMD@?$AA?2?$AAD?$AAr?$AAi?$AAv?$AAe?$AAr?$AA?2?$AA?$HL?$AAz?$AAx?$AAc?$AAh?$AAi?$AAg@FNODOBFM@ ;  ?? ::FNODOBFM::`string'
EXTRN	__imp_RtlInitUnicodeString:PROC
EXTRN	__imp_RtlCompareUnicodeString:PROC
EXTRN	__imp_IofCompleteRequest:PROC
EXTRN	__imp_IoCreateDevice:PROC
EXTRN	__imp_IoCreateSymbolicLink:PROC
EXTRN	__imp_IoDeleteDevice:PROC
EXTRN	__imp_IoDeleteSymbolicLink:PROC
EXTRN	__imp_IoGetCurrentProcess:PROC
EXTRN	__imp_ObfDereferenceObject:PROC
EXTRN	__imp_KeAttachProcess:PROC
EXTRN	__imp_KeDetachProcess:PROC
EXTRN	__imp_KeStackAttachProcess:PROC
EXTRN	__imp_KeUnstackDetachProcess:PROC
EXTRN	__imp_PsLookupProcessByProcessId:PROC
EXTRN	ZwAllocateVirtualMemory:PROC
EXTRN	MmCopyVirtualMemory:PROC
EXTRN	__imp_PsGetProcessPeb:PROC
EXTRN	__imp_IoCreateDriver:PROC
EXTRN	__imp_ZwProtectVirtualMemory:PROC
;	COMDAT pdata
pdata	SEGMENT
$pdata$unload_driver DD imagerel $LN4
	DD	imagerel $LN4+38
	DD	imagerel $unwind$unload_driver
pdata	ENDS
;	COMDAT pdata
pdata	SEGMENT
$pdata$ioctl_create DD imagerel $LN4
	DD	imagerel $LN4+34
	DD	imagerel $unwind$ioctl_create
pdata	ENDS
;	COMDAT pdata
pdata	SEGMENT
$pdata$ioctl_close DD imagerel $LN4
	DD	imagerel $LN4+34
	DD	imagerel $unwind$ioctl_close
pdata	ENDS
;	COMDAT pdata
pdata	SEGMENT
$pdata$io_device_control DD imagerel $LN51
	DD	imagerel $LN51+265
	DD	imagerel $unwind$io_device_control
pdata	ENDS
;	COMDAT pdata
pdata	SEGMENT
$pdata$0$io_device_control DD imagerel $LN51+265
	DD	imagerel $LN51+467
	DD	imagerel $chain$0$io_device_control
pdata	ENDS
;	COMDAT pdata
pdata	SEGMENT
$pdata$1$io_device_control DD imagerel $LN51+467
	DD	imagerel $LN51+713
	DD	imagerel $chain$1$io_device_control
pdata	ENDS
;	COMDAT pdata
pdata	SEGMENT
$pdata$copy_memory DD imagerel $LN4
	DD	imagerel $LN4+57
	DD	imagerel $unwind$copy_memory
pdata	ENDS
;	COMDAT pdata
pdata	SEGMENT
$pdata$get_module_handle DD imagerel $LN24
	DD	imagerel $LN24+208
	DD	imagerel $unwind$get_module_handle
pdata	ENDS
;	COMDAT pdata
pdata	SEGMENT
$pdata$init DD	imagerel $LN4
	DD	imagerel $LN4+201
	DD	imagerel $unwind$init
pdata	ENDS
;	COMDAT pdata
pdata	SEGMENT
$pdata$DriverEntry DD imagerel $LN4
	DD	imagerel $LN4+45
	DD	imagerel $unwind$DriverEntry
pdata	ENDS
;	COMDAT ??_C@_1GE@HMGBIEMD@?$AA?2?$AAD?$AAr?$AAi?$AAv?$AAe?$AAr?$AA?2?$AA?$HL?$AAz?$AAx?$AAc?$AAh?$AAi?$AAg@FNODOBFM@
text$s	SEGMENT
??_C@_1GE@HMGBIEMD@?$AA?2?$AAD?$AAr?$AAi?$AAv?$AAe?$AAr?$AA?2?$AA?$HL?$AAz?$AAx?$AAc?$AAh?$AAi?$AAg@FNODOBFM@ DB '\'
	DB	00H, 'D', 00H, 'r', 00H, 'i', 00H, 'v', 00H, 'e', 00H, 'r', 00H
	DB	'\', 00H, '{', 00H, 'z', 00H, 'x', 00H, 'c', 00H, 'h', 00H, 'i'
	DB	00H, 'g', 00H, 'f', 00H, 'y', 00H, 's', 00H, 'o', 00H, 'r', 00H
	DB	'd', 00H, 'f', 00H, 'd', 00H, 's', 00H, '-', 00H, 'd', 00H, 's'
	DB	00H, 'y', 00H, 'f', 00H, 'g', 00H, 's', 00H, 'y', 00H, 'd', 00H
	DB	'f', 00H, 'z', 00H, 'x', 00H, 'h', 00H, 'c', 00H, 'g', 00H, 'z'
	DB	00H, 'x', 00H, 'j', 00H, 'h', 00H, 'g', 00H, 'v', 00H, 's', 00H
	DB	'd', 00H, 'f', 00H, '}', 00H, 00H, 00H	;  ?? ::FNODOBFM::`string'
text$s	ENDS
;	COMDAT ??_C@_1GM@PKGLOKKB@?$AA?2?$AAD?$AAo?$AAs?$AAD?$AAe?$AAv?$AAi?$AAc?$AAe?$AAs?$AA?2?$AA?$HL?$AAz?$AAx@FNODOBFM@
text$s	SEGMENT
??_C@_1GM@PKGLOKKB@?$AA?2?$AAD?$AAo?$AAs?$AAD?$AAe?$AAv?$AAi?$AAc?$AAe?$AAs?$AA?2?$AA?$HL?$AAz?$AAx@FNODOBFM@ DB '\'
	DB	00H, 'D', 00H, 'o', 00H, 's', 00H, 'D', 00H, 'e', 00H, 'v', 00H
	DB	'i', 00H, 'c', 00H, 'e', 00H, 's', 00H, '\', 00H, '{', 00H, 'z'
	DB	00H, 'x', 00H, 'c', 00H, 'h', 00H, 'i', 00H, 'g', 00H, 'f', 00H
	DB	'y', 00H, 's', 00H, 'o', 00H, 'r', 00H, 'd', 00H, 'f', 00H, 'd'
	DB	00H, 's', 00H, '-', 00H, 'd', 00H, 's', 00H, 'y', 00H, 'f', 00H
	DB	'g', 00H, 's', 00H, 'y', 00H, 'd', 00H, 'f', 00H, 'z', 00H, 'x'
	DB	00H, 'h', 00H, 'c', 00H, 'g', 00H, 'z', 00H, 'x', 00H, 'j', 00H
	DB	'h', 00H, 'g', 00H, 'v', 00H, 's', 00H, 'd', 00H, 'f', 00H, '}'
	DB	00H, 00H, 00H				;  ?? ::FNODOBFM::`string'
text$s	ENDS
;	COMDAT ??_C@_1GE@BJPIKDMC@?$AA?2?$AAD?$AAe?$AAv?$AAi?$AAc?$AAe?$AA?2?$AA?$HL?$AAz?$AAx?$AAc?$AAh?$AAi?$AAg@FNODOBFM@
text$s	SEGMENT
??_C@_1GE@BJPIKDMC@?$AA?2?$AAD?$AAe?$AAv?$AAi?$AAc?$AAe?$AA?2?$AA?$HL?$AAz?$AAx?$AAc?$AAh?$AAi?$AAg@FNODOBFM@ DB '\'
	DB	00H, 'D', 00H, 'e', 00H, 'v', 00H, 'i', 00H, 'c', 00H, 'e', 00H
	DB	'\', 00H, '{', 00H, 'z', 00H, 'x', 00H, 'c', 00H, 'h', 00H, 'i'
	DB	00H, 'g', 00H, 'f', 00H, 'y', 00H, 's', 00H, 'o', 00H, 'r', 00H
	DB	'd', 00H, 'f', 00H, 'd', 00H, 's', 00H, '-', 00H, 'd', 00H, 's'
	DB	00H, 'y', 00H, 'f', 00H, 'g', 00H, 's', 00H, 'y', 00H, 'd', 00H
	DB	'f', 00H, 'z', 00H, 'x', 00H, 'h', 00H, 'c', 00H, 'g', 00H, 'z'
	DB	00H, 'x', 00H, 'j', 00H, 'h', 00H, 'g', 00H, 'v', 00H, 's', 00H
	DB	'd', 00H, 'f', 00H, '}', 00H, 00H, 00H	;  ?? ::FNODOBFM::`string'
text$s	ENDS
;	COMDAT xdata
xdata	SEGMENT
$unwind$DriverEntry DD 030402H
	DD	06001601H
	DD	06204H
xdata	ENDS
;	COMDAT gfids$y
gfids$y	SEGMENT
__guard_fids_DriverEntry DDSymXIndex:  FLAT:init
gfids$y	ENDS
;	COMDAT xdata
xdata	SEGMENT
$unwind$init DD	040602H
	DD	06001602H
	DD	030027206H
xdata	ENDS
;	COMDAT gfids$y
gfids$y	SEGMENT
__guard_fids_init DDSymXIndex:  FLAT:unload_driver
	DDSymXIndex: 	FLAT:ioctl_close
	DDSymXIndex: 	FLAT:ioctl_create
	DDSymXIndex: 	FLAT:io_device_control
gfids$y	ENDS
;	COMDAT xdata
xdata	SEGMENT
$unwind$get_module_handle DD 083702H
	DD	06a51602H
	DD	087437H
	DD	09340aH
	DD	06006520aH
xdata	ENDS
;	COMDAT xdata
xdata	SEGMENT
$unwind$copy_memory DD 030402H
	DD	06001601H
	DD	0a204H
xdata	ENDS
;	COMDAT xdata
xdata	SEGMENT
$chain$1$io_device_control DD 020022H
	DD	06001608H
	DD	imagerel $LN51
	DD	imagerel $LN51+265
	DD	imagerel $unwind$io_device_control
xdata	ENDS
;	COMDAT xdata
xdata	SEGMENT
$chain$0$io_device_control DD 020822H
	DD	016d408H
	DD	imagerel $LN51
	DD	imagerel $LN51+265
	DD	imagerel $unwind$io_device_control
xdata	ENDS
;	COMDAT xdata
xdata	SEGMENT
$unwind$io_device_control DD 081602H
	DD	0193416H
	DD	0f00cf216H
	DD	07008e00aH
	DD	050066007H
xdata	ENDS
;	COMDAT xdata
xdata	SEGMENT
$unwind$ioctl_close DD 030402H
	DD	06001601H
	DD	04204H
xdata	ENDS
;	COMDAT xdata
xdata	SEGMENT
$unwind$ioctl_create DD 030402H
	DD	06001601H
	DD	04204H
xdata	ENDS
;	COMDAT xdata
xdata	SEGMENT
$unwind$unload_driver DD 040602H
	DD	06001608H
	DD	030023206H
xdata	ENDS
; Function compile flags: /Ogtp
; File C:\Users\Administrator\Downloads\Injector\DriverKernel\main.c
;	COMDAT DriverEntry
_TEXT	SEGMENT
drv_name$ = 32
driver$ = 64
path$ = 72
DriverEntry PROC					; COMDAT

; 36   : NTSTATUS DriverEntry(PDRIVER_OBJECT driver,	PUNICODE_STRING path) { 

$LN4:
  00000	48 83 ec 38	 sub	 rsp, 56			; 00000038H

; 37   : 	NTSTATUS        status;
; 38   : 	UNICODE_STRING drv_name;
; 39   : 	RtlInitUnicodeString(&drv_name, drv);

  00004	48 8d 15 00 00
	00 00		 lea	 rdx, OFFSET FLAT:??_C@_1GE@HMGBIEMD@?$AA?2?$AAD?$AAr?$AAi?$AAv?$AAe?$AAr?$AA?2?$AA?$HL?$AAz?$AAx?$AAc?$AAh?$AAi?$AAg@FNODOBFM@
  0000b	48 8d 4c 24 20	 lea	 rcx, QWORD PTR drv_name$[rsp]
  00010	ff 15 00 00 00
	00		 call	 QWORD PTR __imp_RtlInitUnicodeString

; 40   : 	return IoCreateDriver(&drv_name, &init); 

  00016	48 8d 15 00 00
	00 00		 lea	 rdx, OFFSET FLAT:init
  0001d	48 8d 4c 24 20	 lea	 rcx, QWORD PTR drv_name$[rsp]
  00022	ff 15 00 00 00
	00		 call	 QWORD PTR __imp_IoCreateDriver

; 41   : }

  00028	48 83 c4 38	 add	 rsp, 56			; 00000038H
  0002c	c3		 ret	 0
DriverEntry ENDP
_TEXT	ENDS
; Function compile flags: /Ogtp
; File C:\Users\Administrator\Downloads\Injector\DriverKernel\main.c
;	COMDAT init
_TEXT	SEGMENT
driver$ = 80
path$ = 88
init	PROC						; COMDAT

; 18   : NTSTATUS init(PDRIVER_OBJECT driver, PUNICODE_STRING path) { 

$LN4:
  00000	40 53		 push	 rbx
  00002	48 83 ec 40	 sub	 rsp, 64			; 00000040H
  00006	48 8b d9	 mov	 rbx, rcx

; 19   : 	RtlInitUnicodeString(&dev, drv_device);

  00009	48 8d 15 00 00
	00 00		 lea	 rdx, OFFSET FLAT:??_C@_1GE@BJPIKDMC@?$AA?2?$AAD?$AAe?$AAv?$AAi?$AAc?$AAe?$AA?2?$AA?$HL?$AAz?$AAx?$AAc?$AAh?$AAi?$AAg@FNODOBFM@
  00010	48 8d 0d 00 00
	00 00		 lea	 rcx, OFFSET FLAT:dev
  00017	ff 15 00 00 00
	00		 call	 QWORD PTR __imp_RtlInitUnicodeString

; 20   : 	RtlInitUnicodeString(&dos, drv_dos_device);

  0001d	48 8d 15 00 00
	00 00		 lea	 rdx, OFFSET FLAT:??_C@_1GM@PKGLOKKB@?$AA?2?$AAD?$AAo?$AAs?$AAD?$AAe?$AAv?$AAi?$AAc?$AAe?$AAs?$AA?2?$AA?$HL?$AAz?$AAx@FNODOBFM@
  00024	48 8d 0d 00 00
	00 00		 lea	 rcx, OFFSET FLAT:dos
  0002b	ff 15 00 00 00
	00		 call	 QWORD PTR __imp_RtlInitUnicodeString

; 21   : 
; 22   : 	IoCreateDevice(driver, 0, &dev, FILE_DEVICE_UNKNOWN, FILE_DEVICE_SECURE_OPEN, FALSE, &driver_object);

  00031	48 8d 05 00 00
	00 00		 lea	 rax, OFFSET FLAT:driver_object
  00038	41 b9 22 00 00
	00		 mov	 r9d, 34			; 00000022H
  0003e	48 89 44 24 30	 mov	 QWORD PTR [rsp+48], rax
  00043	4c 8d 05 00 00
	00 00		 lea	 r8, OFFSET FLAT:dev
  0004a	c6 44 24 28 00	 mov	 BYTE PTR [rsp+40], 0
  0004f	33 d2		 xor	 edx, edx
  00051	48 8b cb	 mov	 rcx, rbx
  00054	c7 44 24 20 00
	01 00 00	 mov	 DWORD PTR [rsp+32], 256	; 00000100H
  0005c	ff 15 00 00 00
	00		 call	 QWORD PTR __imp_IoCreateDevice

; 23   : 	IoCreateSymbolicLink(&dos, &dev);

  00062	48 8d 15 00 00
	00 00		 lea	 rdx, OFFSET FLAT:dev
  00069	48 8d 0d 00 00
	00 00		 lea	 rcx, OFFSET FLAT:dos
  00070	ff 15 00 00 00
	00		 call	 QWORD PTR __imp_IoCreateSymbolicLink

; 24   : 
; 25   : 	driver->MajorFunction[IRP_MJ_DEVICE_CONTROL] = io_device_control;

  00076	48 8d 05 00 00
	00 00		 lea	 rax, OFFSET FLAT:io_device_control
  0007d	48 89 83 e0 00
	00 00		 mov	 QWORD PTR [rbx+224], rax

; 26   : 	driver->MajorFunction[IRP_MJ_CREATE] = ioctl_create;

  00084	48 8d 05 00 00
	00 00		 lea	 rax, OFFSET FLAT:ioctl_create
  0008b	48 89 43 70	 mov	 QWORD PTR [rbx+112], rax

; 27   : 	driver->MajorFunction[IRP_MJ_CLOSE] = ioctl_close;

  0008f	48 8d 05 00 00
	00 00		 lea	 rax, OFFSET FLAT:ioctl_close
  00096	48 89 83 80 00
	00 00		 mov	 QWORD PTR [rbx+128], rax

; 28   : 	driver->DriverUnload = unload_driver;

  0009d	48 8d 05 00 00
	00 00		 lea	 rax, OFFSET FLAT:unload_driver
  000a4	48 89 43 68	 mov	 QWORD PTR [rbx+104], rax

; 29   : 
; 30   : 	driver_object->Flags |= DO_DIRECT_IO;

  000a8	48 8b 05 00 00
	00 00		 mov	 rax, QWORD PTR driver_object
  000af	83 48 30 10	 or	 DWORD PTR [rax+48], 16

; 31   : 	driver_object->Flags &= ~DO_DEVICE_INITIALIZING;

  000b3	48 8b 05 00 00
	00 00		 mov	 rax, QWORD PTR driver_object
  000ba	81 60 30 7f ff
	ff ff		 and	 DWORD PTR [rax+48], -129 ; ffffff7fH

; 32   : 
; 33   : 	return STATUS_SUCCESS;

  000c1	33 c0		 xor	 eax, eax

; 34   : }

  000c3	48 83 c4 40	 add	 rsp, 64			; 00000040H
  000c7	5b		 pop	 rbx
  000c8	c3		 ret	 0
init	ENDP
_TEXT	ENDS
; Function compile flags: /Ogtp
; File C:\Users\Administrator\Downloads\Injector\DriverKernel\main.c
;	COMDAT get_module_handle
_TEXT	SEGMENT
module_name_unicode$ = 32
pid$ = 64
module_name$ = 72
target_proc$ = 80
get_module_handle PROC					; COMDAT

; 148  : ULONGLONG get_module_handle(ULONG pid, LPCWSTR module_name) {

$LN24:
  00000	48 89 5c 24 10	 mov	 QWORD PTR [rsp+16], rbx
  00005	56		 push	 rsi
  00006	48 83 ec 30	 sub	 rsp, 48			; 00000030H
  0000a	48 8b da	 mov	 rbx, rdx

; 149  : 	PEPROCESS target_proc;
; 150  : 	ULONGLONG base = 0;
; 151  : 	if (!NT_SUCCESS(PsLookupProcessByProcessId((HANDLE)pid, &target_proc)))

  0000d	8b c9		 mov	 ecx, ecx
  0000f	48 8d 54 24 50	 lea	 rdx, QWORD PTR target_proc$[rsp]
  00014	33 f6		 xor	 esi, esi
  00016	ff 15 00 00 00
	00		 call	 QWORD PTR __imp_PsLookupProcessByProcessId
  0001c	85 c0		 test	 eax, eax
  0001e	79 0d		 jns	 SHORT $LN5@get_module

; 152  : 		return 0;

  00020	33 c0		 xor	 eax, eax

; 180  : }

  00022	48 8b 5c 24 48	 mov	 rbx, QWORD PTR [rsp+72]
  00027	48 83 c4 30	 add	 rsp, 48			; 00000030H
  0002b	5e		 pop	 rsi
  0002c	c3		 ret	 0
$LN5@get_module:

; 153  : 
; 154  : 	KeAttachProcess((PKPROCESS)target_proc);

  0002d	48 8b 4c 24 50	 mov	 rcx, QWORD PTR target_proc$[rsp]
  00032	48 89 7c 24 40	 mov	 QWORD PTR [rsp+64], rdi
  00037	ff 15 00 00 00
	00		 call	 QWORD PTR __imp_KeAttachProcess

; 155  : 
; 156  : 	PPEB peb = PsGetProcessPeb(target_proc);

  0003d	48 8b 4c 24 50	 mov	 rcx, QWORD PTR target_proc$[rsp]
  00042	ff 15 00 00 00
	00		 call	 QWORD PTR __imp_PsGetProcessPeb
  00048	48 8b f8	 mov	 rdi, rax

; 157  : 	if (!peb)

  0004b	48 85 c0	 test	 rax, rax
  0004e	74 5c		 je	 SHORT $end$25

; 158  : 		goto end;
; 159  : 
; 160  : 	if (!peb->Ldr || !peb->Ldr->Initialized)

  00050	48 8b 40 18	 mov	 rax, QWORD PTR [rax+24]
  00054	48 85 c0	 test	 rax, rax
  00057	74 53		 je	 SHORT $end$25
  00059	40 38 70 04	 cmp	 BYTE PTR [rax+4], sil
  0005d	74 4d		 je	 SHORT $end$25

; 161  : 		goto end;
; 162  : 
; 163  : 
; 164  : 	UNICODE_STRING module_name_unicode;
; 165  : 	RtlInitUnicodeString(&module_name_unicode, module_name);

  0005f	48 8b d3	 mov	 rdx, rbx
  00062	48 8d 4c 24 20	 lea	 rcx, QWORD PTR module_name_unicode$[rsp]
  00067	ff 15 00 00 00
	00		 call	 QWORD PTR __imp_RtlInitUnicodeString

; 166  : 	for (PLIST_ENTRY list = peb->Ldr->InLoadOrderModuleList.Flink;

  0006d	48 8b 47 18	 mov	 rax, QWORD PTR [rdi+24]
  00071	48 83 c0 10	 add	 rax, 16
  00075	48 8b 18	 mov	 rbx, QWORD PTR [rax]

; 167  : 		list != &peb->Ldr->InLoadOrderModuleList;

  00078	48 3b d8	 cmp	 rbx, rax
  0007b	74 2f		 je	 SHORT $end$25
  0007d	0f 1f 00	 npad	 3
$LL4@get_module:

; 169  : 		PLDR_DATA_TABLE_ENTRY entry = CONTAINING_RECORD(list, LDR_DATA_TABLE_ENTRY, InLoadOrderLinks);
; 170  : 		if (RtlCompareUnicodeString(&entry->BaseDllName, &module_name_unicode, TRUE) == 0) {

  00080	48 8d 4b 58	 lea	 rcx, QWORD PTR [rbx+88]
  00084	41 b0 01	 mov	 r8b, 1
  00087	48 8d 54 24 20	 lea	 rdx, QWORD PTR module_name_unicode$[rsp]
  0008c	ff 15 00 00 00
	00		 call	 QWORD PTR __imp_RtlCompareUnicodeString
  00092	85 c0		 test	 eax, eax
  00094	74 12		 je	 SHORT $LN12@get_module

; 168  : 		list = list->Flink) {

  00096	48 8b 47 18	 mov	 rax, QWORD PTR [rdi+24]
  0009a	48 8b 1b	 mov	 rbx, QWORD PTR [rbx]
  0009d	48 83 c0 10	 add	 rax, 16
  000a1	48 3b d8	 cmp	 rbx, rax
  000a4	75 da		 jne	 SHORT $LL4@get_module

; 169  : 		PLDR_DATA_TABLE_ENTRY entry = CONTAINING_RECORD(list, LDR_DATA_TABLE_ENTRY, InLoadOrderLinks);
; 170  : 		if (RtlCompareUnicodeString(&entry->BaseDllName, &module_name_unicode, TRUE) == 0) {

  000a6	eb 04		 jmp	 SHORT $end$25
$LN12@get_module:

; 171  : 			base = entry->DllBase;

  000a8	48 8b 73 30	 mov	 rsi, QWORD PTR [rbx+48]
$end$25:

; 172  : 			goto end;
; 173  : 		}
; 174  : 	}
; 175  : 
; 176  : end:
; 177  : 	KeDetachProcess();

  000ac	ff 15 00 00 00
	00		 call	 QWORD PTR __imp_KeDetachProcess

; 178  : 	ObDereferenceObject(target_proc);

  000b2	48 8b 4c 24 50	 mov	 rcx, QWORD PTR target_proc$[rsp]
  000b7	ff 15 00 00 00
	00		 call	 QWORD PTR __imp_ObfDereferenceObject

; 179  : 	return base;

  000bd	48 8b 7c 24 40	 mov	 rdi, QWORD PTR [rsp+64]
  000c2	48 8b c6	 mov	 rax, rsi

; 180  : }

  000c5	48 8b 5c 24 48	 mov	 rbx, QWORD PTR [rsp+72]
  000ca	48 83 c4 30	 add	 rsp, 48			; 00000030H
  000ce	5e		 pop	 rsi
  000cf	c3		 ret	 0
get_module_handle ENDP
_TEXT	ENDS
; Function compile flags: /Ogtp
; File C:\Users\Administrator\Downloads\Injector\DriverKernel\main.c
;	COMDAT copy_memory
_TEXT	SEGMENT
bytes$ = 64
src_proc$ = 96
target_proc$ = 104
src$ = 112
dst$ = 120
size$ = 128
copy_memory PROC					; COMDAT

; 143  : __inline NTSTATUS copy_memory(PEPROCESS src_proc, PEPROCESS target_proc, PVOID src, PVOID dst, SIZE_T size) {

$LN4:
  00000	48 83 ec 58	 sub	 rsp, 88			; 00000058H
  00004	4d 8b d0	 mov	 r10, r8

; 144  : 	PSIZE_T bytes;
; 145  : 	return MmCopyVirtualMemory(target_proc, src, src_proc, dst, size, UserMode, &bytes);

  00007	48 8d 44 24 40	 lea	 rax, QWORD PTR bytes$[rsp]
  0000c	48 89 44 24 30	 mov	 QWORD PTR [rsp+48], rax
  00011	4c 8b da	 mov	 r11, rdx
  00014	48 8b 84 24 80
	00 00 00	 mov	 rax, QWORD PTR size$[rsp]
  0001c	4c 8b c1	 mov	 r8, rcx
  0001f	c6 44 24 28 01	 mov	 BYTE PTR [rsp+40], 1
  00024	49 8b d2	 mov	 rdx, r10
  00027	49 8b cb	 mov	 rcx, r11
  0002a	48 89 44 24 20	 mov	 QWORD PTR [rsp+32], rax
  0002f	e8 00 00 00 00	 call	 MmCopyVirtualMemory

; 146  : }

  00034	48 83 c4 58	 add	 rsp, 88			; 00000058H
  00038	c3		 ret	 0
copy_memory ENDP
_TEXT	ENDS
; Function compile flags: /Ogtp
; File C:\Users\Administrator\Downloads\Injector\DriverKernel\main.c
;	COMDAT io_device_control
_TEXT	SEGMENT
module_name_unicode$1 = 64
apc$2 = 80
apc$3 = 80
device$ = 176
irp$ = 184
target_proc$4 = 184
old_protection$5 = 184
target_proc$6 = 184
target_proc$7 = 184
target_proc$8 = 184
target_proc$9 = 192
bytes$10 = 192
io_device_control PROC					; COMDAT

; 43   : NTSTATUS io_device_control(PDEVICE_OBJECT device, PIRP irp){

$LN51:
  00000	48 89 5c 24 20	 mov	 QWORD PTR [rsp+32], rbx
  00005	55		 push	 rbp
  00006	56		 push	 rsi
  00007	57		 push	 rdi
  00008	41 56		 push	 r14
  0000a	41 57		 push	 r15
  0000c	48 8b ec	 mov	 rbp, rsp
  0000f	48 81 ec 80 00
	00 00		 sub	 rsp, 128		; 00000080H

; 44   : 	NTSTATUS status;
; 45   : 	ULONG info_size = 0; 
; 46   : 	PIO_STACK_LOCATION stack = IoGetCurrentIrpStackLocation(irp);
; 47   : 	ULONG control_code = stack->Parameters.DeviceIoControl.IoControlCode; 

  00016	48 8b 82 b8 00
	00 00		 mov	 rax, QWORD PTR [rdx+184]
  0001d	4c 8b fa	 mov	 r15, rdx
  00020	8b 48 18	 mov	 ecx, DWORD PTR [rax+24]

; 48   : 	
; 49   : 	switch (control_code) {

  00023	81 f9 18 ca 26
	00		 cmp	 ecx, 2542104		; 0026ca18H
  00029	0f 84 0d 02 00
	00		 je	 $LN8@io_device_
  0002f	81 f9 18 c5 2e
	01		 cmp	 ecx, 19842328		; 012ec518H
  00035	0f 84 98 01 00
	00		 je	 $LN6@io_device_
  0003b	81 f9 64 50 3a
	01		 cmp	 ecx, 20598884		; 013a5064H
  00041	0f 84 c2 00 00
	00		 je	 $LN12@io_device_
  00047	81 f9 50 de 6a
	01		 cmp	 ecx, 23780944		; 016ade50H
  0004d	74 5c		 je	 SHORT $LN4@io_device_
  0004f	81 f9 8c 60 ea
	01		 cmp	 ecx, 32137356		; 01ea608cH
  00055	74 0c		 je	 SHORT $LN10@io_device_

; 110  : 
; 111  : 	default:
; 112  : 			status = STATUS_INVALID_PARAMETER;

  00057	bb 0d 00 00 c0	 mov	 ebx, -1073741811	; ffffffffc000000dH

; 113  : 			info_size = 0;

  0005c	33 ff		 xor	 edi, edi
  0005e	e9 3a 02 00 00	 jmp	 $LN2@io_device_
$LN10@io_device_:

; 87   : 				ObfDereferenceObject(target_proc);
; 88   : 			} 
; 89   : 			info_size = sizeof(k_rw_request);
; 90   : 		} break;
; 91   : 
; 92   : 	case ioctl_write_memory: {
; 93   : 			pk_rw_request in = (pk_rw_request)irp->AssociatedIrp.SystemBuffer;

  00063	48 8b 72 18	 mov	 rsi, QWORD PTR [rdx+24]

; 94   : 			PEPROCESS target_proc; 
; 95   : 			status = PsLookupProcessByProcessId(in->pid, &target_proc);

  00067	48 8d 55 38	 lea	 rdx, QWORD PTR target_proc$7[rbp-128]
  0006b	8b 0e		 mov	 ecx, DWORD PTR [rsi]
  0006d	ff 15 00 00 00
	00		 call	 QWORD PTR __imp_PsLookupProcessByProcessId
  00073	8b d8		 mov	 ebx, eax

; 96   : 			if (NT_SUCCESS(status)) {

  00075	85 c0		 test	 eax, eax
  00077	0f 88 1b 02 00
	00		 js	 $LN9@io_device_

; 97   : 				status = copy_memory(target_proc, PsGetCurrentProcess(), in->src, in->dst, in->size);

  0007d	48 8b 5e 18	 mov	 rbx, QWORD PTR [rsi+24]
  00081	48 8b 7e 10	 mov	 rdi, QWORD PTR [rsi+16]
  00085	48 8b 76 08	 mov	 rsi, QWORD PTR [rsi+8]
  00089	ff 15 00 00 00
	00		 call	 QWORD PTR __imp_IoGetCurrentProcess
  0008f	48 8b 4d 38	 mov	 rcx, QWORD PTR target_proc$7[rbp-128]
  00093	4c 8b cf	 mov	 r9, rdi
  00096	48 8b d0	 mov	 rdx, rax
  00099	48 89 5c 24 20	 mov	 QWORD PTR [rsp+32], rbx
  0009e	4c 8b c6	 mov	 r8, rsi
  000a1	e8 00 00 00 00	 call	 copy_memory

; 98   : 				ObfDereferenceObject(target_proc);
; 99   : 			}
; 100  : 			info_size = sizeof(k_rw_request);
; 101  : 		} break;

  000a6	e9 e1 01 00 00	 jmp	 $LN48@io_device_
$LN4@io_device_:

; 50   : 	case ioctl_allocate_virtual_memory: {
; 51   : 			pk_alloc_mem_request in = (pk_alloc_mem_request)irp->AssociatedIrp.SystemBuffer;

  000ab	48 8b 7a 18	 mov	 rdi, QWORD PTR [rdx+24]

; 52   : 			PEPROCESS target_proc;
; 53   : 			status = PsLookupProcessByProcessId(in->pid, &target_proc); 

  000af	48 8d 55 38	 lea	 rdx, QWORD PTR target_proc$4[rbp-128]
  000b3	8b 0f		 mov	 ecx, DWORD PTR [rdi]
  000b5	ff 15 00 00 00
	00		 call	 QWORD PTR __imp_PsLookupProcessByProcessId
  000bb	8b d8		 mov	 ebx, eax

; 54   : 			if (NT_SUCCESS(status)) {

  000bd	85 c0		 test	 eax, eax
  000bf	0f 88 d3 01 00
	00		 js	 $LN9@io_device_

; 55   : 				KAPC_STATE apc;
; 56   : 				KeStackAttachProcess(target_proc, &apc);

  000c5	48 8b 4d 38	 mov	 rcx, QWORD PTR target_proc$4[rbp-128]
  000c9	48 8d 55 d0	 lea	 rdx, QWORD PTR apc$2[rbp-128]
  000cd	ff 15 00 00 00
	00		 call	 QWORD PTR __imp_KeStackAttachProcess

; 57   : 				status = ZwAllocateVirtualMemory(ZwCurrentProcess(), &in->addr, 0, &in->size,

  000d3	8b 47 08	 mov	 eax, DWORD PTR [rdi+8]
  000d6	4c 8d 4f 18	 lea	 r9, QWORD PTR [rdi+24]
  000da	89 44 24 28	 mov	 DWORD PTR [rsp+40], eax
  000de	48 8d 57 10	 lea	 rdx, QWORD PTR [rdi+16]
  000e2	8b 47 04	 mov	 eax, DWORD PTR [rdi+4]
  000e5	45 33 c0	 xor	 r8d, r8d
  000e8	48 c7 c1 ff ff
	ff ff		 mov	 rcx, -1
  000ef	89 44 24 20	 mov	 DWORD PTR [rsp+32], eax
  000f3	e8 00 00 00 00	 call	 ZwAllocateVirtualMemory

; 58   : 					in->allocation_type, in->protect);
; 59   : 				KeUnstackDetachProcess(&apc);

  000f8	48 8d 4d d0	 lea	 rcx, QWORD PTR apc$2[rbp-128]
  000fc	8b d8		 mov	 ebx, eax
  000fe	ff 15 00 00 00
	00		 call	 QWORD PTR __imp_KeUnstackDetachProcess

; 60   : 				ObfDereferenceObject(target_proc);
; 61   : 			} 
; 62   : 			info_size = sizeof(k_alloc_mem_request);
; 63   : 		} break;

  00104	e9 85 01 00 00	 jmp	 $LN49@io_device_
$LN12@io_device_:
  00109	4c 89 ac 24 b0
	00 00 00	 mov	 QWORD PTR [rsp+176], r13

; 150  : 	ULONGLONG base = 0;

  00111	33 ff		 xor	 edi, edi

; 102  : 
; 103  : 	case ioctl_get_module_base: {
; 104  : 			pk_get_base_module_request in = (pk_get_base_module_request)irp->AssociatedIrp.SystemBuffer;

  00113	4c 8b 6a 18	 mov	 r13, QWORD PTR [rdx+24]

; 150  : 	ULONGLONG base = 0;

  00117	44 8b f7	 mov	 r14d, edi

; 151  : 	if (!NT_SUCCESS(PsLookupProcessByProcessId((HANDLE)pid, &target_proc)))

  0011a	48 8d 55 38	 lea	 rdx, QWORD PTR target_proc$8[rbp-128]
  0011e	41 8b 4d 00	 mov	 ecx, DWORD PTR [r13]
  00122	ff 15 00 00 00
	00		 call	 QWORD PTR __imp_PsLookupProcessByProcessId
  00128	85 c0		 test	 eax, eax
  0012a	0f 88 8b 00 00
	00		 js	 $LN17@io_device_

; 152  : 		return 0;
; 153  : 
; 154  : 	KeAttachProcess((PKPROCESS)target_proc);

  00130	48 8b 4d 38	 mov	 rcx, QWORD PTR target_proc$8[rbp-128]
  00134	ff 15 00 00 00
	00		 call	 QWORD PTR __imp_KeAttachProcess

; 155  : 
; 156  : 	PPEB peb = PsGetProcessPeb(target_proc);

  0013a	48 8b 4d 38	 mov	 rcx, QWORD PTR target_proc$8[rbp-128]
  0013e	ff 15 00 00 00
	00		 call	 QWORD PTR __imp_PsGetProcessPeb
  00144	48 8b f0	 mov	 rsi, rax

; 157  : 	if (!peb)

  00147	48 85 c0	 test	 rax, rax
  0014a	74 5f		 je	 SHORT $end$52

; 158  : 		goto end;
; 159  : 
; 160  : 	if (!peb->Ldr || !peb->Ldr->Initialized)

  0014c	48 8b 40 18	 mov	 rax, QWORD PTR [rax+24]
  00150	48 85 c0	 test	 rax, rax
  00153	74 56		 je	 SHORT $end$52
  00155	40 38 78 04	 cmp	 BYTE PTR [rax+4], dil
  00159	74 50		 je	 SHORT $end$52

; 105  : 			ULONGLONG handle = get_module_handle(in->pid, in->name);

  0015b	49 8d 55 10	 lea	 rdx, QWORD PTR [r13+16]

; 165  : 	RtlInitUnicodeString(&module_name_unicode, module_name);

  0015f	48 8d 4d c0	 lea	 rcx, QWORD PTR module_name_unicode$1[rbp-128]
  00163	ff 15 00 00 00
	00		 call	 QWORD PTR __imp_RtlInitUnicodeString

; 166  : 	for (PLIST_ENTRY list = peb->Ldr->InLoadOrderModuleList.Flink;

  00169	48 8b 46 18	 mov	 rax, QWORD PTR [rsi+24]
  0016d	48 83 c0 10	 add	 rax, 16
  00171	48 8b 18	 mov	 rbx, QWORD PTR [rax]

; 167  : 		list != &peb->Ldr->InLoadOrderModuleList;

  00174	48 3b d8	 cmp	 rbx, rax
  00177	74 32		 je	 SHORT $end$52
  00179	0f 1f 80 00 00
	00 00		 npad	 7
$LL20@io_device_:

; 169  : 		PLDR_DATA_TABLE_ENTRY entry = CONTAINING_RECORD(list, LDR_DATA_TABLE_ENTRY, InLoadOrderLinks);
; 170  : 		if (RtlCompareUnicodeString(&entry->BaseDllName, &module_name_unicode, TRUE) == 0) {

  00180	48 8d 4b 58	 lea	 rcx, QWORD PTR [rbx+88]
  00184	41 b0 01	 mov	 r8b, 1
  00187	48 8d 55 c0	 lea	 rdx, QWORD PTR module_name_unicode$1[rbp-128]
  0018b	ff 15 00 00 00
	00		 call	 QWORD PTR __imp_RtlCompareUnicodeString
  00191	85 c0		 test	 eax, eax
  00193	74 12		 je	 SHORT $LN28@io_device_

; 168  : 		list = list->Flink) {

  00195	48 8b 46 18	 mov	 rax, QWORD PTR [rsi+24]
  00199	48 8b 1b	 mov	 rbx, QWORD PTR [rbx]
  0019c	48 83 c0 10	 add	 rax, 16
  001a0	48 3b d8	 cmp	 rbx, rax
  001a3	75 db		 jne	 SHORT $LL20@io_device_

; 169  : 		PLDR_DATA_TABLE_ENTRY entry = CONTAINING_RECORD(list, LDR_DATA_TABLE_ENTRY, InLoadOrderLinks);
; 170  : 		if (RtlCompareUnicodeString(&entry->BaseDllName, &module_name_unicode, TRUE) == 0) {

  001a5	eb 04		 jmp	 SHORT $end$52
$LN28@io_device_:

; 171  : 			base = entry->DllBase;

  001a7	4c 8b 73 30	 mov	 r14, QWORD PTR [rbx+48]
$end$52:

; 172  : 			goto end;
; 173  : 		}
; 174  : 	}
; 175  : 
; 176  : end:
; 177  : 	KeDetachProcess();

  001ab	ff 15 00 00 00
	00		 call	 QWORD PTR __imp_KeDetachProcess

; 178  : 	ObDereferenceObject(target_proc);

  001b1	48 8b 4d 38	 mov	 rcx, QWORD PTR target_proc$8[rbp-128]
  001b5	ff 15 00 00 00
	00		 call	 QWORD PTR __imp_ObfDereferenceObject
$LN17@io_device_:

; 106  : 			in->handle = handle;

  001bb	4d 89 75 08	 mov	 QWORD PTR [r13+8], r14

; 107  : 			status = STATUS_SUCCESS;

  001bf	8b df		 mov	 ebx, edi

; 108  : 			info_size = sizeof(k_get_base_module_request);

  001c1	4c 8b ac 24 b0
	00 00 00	 mov	 r13, QWORD PTR [rsp+176]
  001c9	bf 18 02 00 00	 mov	 edi, 536		; 00000218H

; 109  : 		} break;

  001ce	e9 ca 00 00 00	 jmp	 $LN2@io_device_
$LN6@io_device_:

; 64   : 
; 65   : 	case ioctl_protect_virutal_memory: {
; 66   : 			pk_protect_mem_request in = (pk_protect_mem_request)irp->AssociatedIrp.SystemBuffer;

  001d3	48 8b 7a 18	 mov	 rdi, QWORD PTR [rdx+24]

; 67   : 			PEPROCESS target_proc;
; 68   : 			status = PsLookupProcessByProcessId(in->pid, &target_proc);

  001d7	48 8d 55 40	 lea	 rdx, QWORD PTR target_proc$9[rbp-128]
  001db	8b 0f		 mov	 ecx, DWORD PTR [rdi]
  001dd	ff 15 00 00 00
	00		 call	 QWORD PTR __imp_PsLookupProcessByProcessId
  001e3	8b d8		 mov	 ebx, eax

; 69   : 			if (NT_SUCCESS(status)) {

  001e5	85 c0		 test	 eax, eax
  001e7	78 4c		 js	 SHORT $LN7@io_device_

; 70   : 				KAPC_STATE apc;
; 71   : 				ULONG old_protection;
; 72   : 				KeStackAttachProcess(target_proc, &apc);

  001e9	48 8b 4d 40	 mov	 rcx, QWORD PTR target_proc$9[rbp-128]
  001ed	48 8d 55 d0	 lea	 rdx, QWORD PTR apc$3[rbp-128]
  001f1	ff 15 00 00 00
	00		 call	 QWORD PTR __imp_KeStackAttachProcess

; 73   : 				status = ZwProtectVirtualMemory(ZwCurrentProcess(), &in->addr, &in->size, in->protect, &old_protection);

  001f7	44 8b 4f 04	 mov	 r9d, DWORD PTR [rdi+4]
  001fb	48 8d 45 38	 lea	 rax, QWORD PTR old_protection$5[rbp-128]
  001ff	4c 8d 47 10	 lea	 r8, QWORD PTR [rdi+16]
  00203	48 89 44 24 20	 mov	 QWORD PTR [rsp+32], rax
  00208	48 8d 57 08	 lea	 rdx, QWORD PTR [rdi+8]
  0020c	48 c7 c1 ff ff
	ff ff		 mov	 rcx, -1
  00213	ff 15 00 00 00
	00		 call	 QWORD PTR __imp_ZwProtectVirtualMemory

; 74   : 				KeUnstackDetachProcess(&apc);

  00219	48 8d 4d d0	 lea	 rcx, QWORD PTR apc$3[rbp-128]
  0021d	8b d8		 mov	 ebx, eax
  0021f	ff 15 00 00 00
	00		 call	 QWORD PTR __imp_KeUnstackDetachProcess

; 75   : 				in->protect = old_protection;

  00225	8b 45 38	 mov	 eax, DWORD PTR old_protection$5[rbp-128]
  00228	89 47 04	 mov	 DWORD PTR [rdi+4], eax

; 76   : 				ObfDereferenceObject(target_proc);

  0022b	48 8b 4d 40	 mov	 rcx, QWORD PTR target_proc$9[rbp-128]
  0022f	ff 15 00 00 00
	00		 call	 QWORD PTR __imp_ObfDereferenceObject
$LN7@io_device_:

; 77   : 			}
; 78   : 			info_size = sizeof(k_protect_mem_request);

  00235	bf 18 00 00 00	 mov	 edi, 24

; 79   : 		} break;

  0023a	eb 61		 jmp	 SHORT $LN2@io_device_
$LN8@io_device_:

; 80   : 	
; 81   : 	case ioctl_read_memory: {
; 82   : 			pk_rw_request in = (pk_rw_request)irp->AssociatedIrp.SystemBuffer;

  0023c	48 8b 72 18	 mov	 rsi, QWORD PTR [rdx+24]

; 83   : 			PEPROCESS target_proc; 
; 84   : 			status = PsLookupProcessByProcessId(in->pid, &target_proc);

  00240	48 8d 55 38	 lea	 rdx, QWORD PTR target_proc$6[rbp-128]
  00244	8b 0e		 mov	 ecx, DWORD PTR [rsi]
  00246	ff 15 00 00 00
	00		 call	 QWORD PTR __imp_PsLookupProcessByProcessId
  0024c	8b d8		 mov	 ebx, eax

; 85   : 			if (NT_SUCCESS(status)) {

  0024e	85 c0		 test	 eax, eax
  00250	78 46		 js	 SHORT $LN9@io_device_

; 86   : 				status = copy_memory(PsGetCurrentProcess(), target_proc, in->src, in->dst, in->size);

  00252	48 8b 5e 18	 mov	 rbx, QWORD PTR [rsi+24]
  00256	48 8b 7e 10	 mov	 rdi, QWORD PTR [rsi+16]
  0025a	48 8b 76 08	 mov	 rsi, QWORD PTR [rsi+8]
  0025e	4c 8b 75 38	 mov	 r14, QWORD PTR target_proc$6[rbp-128]
  00262	ff 15 00 00 00
	00		 call	 QWORD PTR __imp_IoGetCurrentProcess

; 145  : 	return MmCopyVirtualMemory(target_proc, src, src_proc, dst, size, UserMode, &bytes);

  00268	48 8d 4d 40	 lea	 rcx, QWORD PTR bytes$10[rbp-128]
  0026c	4c 8b cf	 mov	 r9, rdi
  0026f	48 89 4c 24 30	 mov	 QWORD PTR [rsp+48], rcx
  00274	4c 8b c0	 mov	 r8, rax
  00277	c6 44 24 28 01	 mov	 BYTE PTR [rsp+40], 1
  0027c	49 8b ce	 mov	 rcx, r14
  0027f	48 8b d6	 mov	 rdx, rsi
  00282	48 89 5c 24 20	 mov	 QWORD PTR [rsp+32], rbx
  00287	e8 00 00 00 00	 call	 MmCopyVirtualMemory
$LN48@io_device_:

; 114  : 		break;
; 115  : 	}
; 116  : 
; 117  : 
; 118  : 	irp->IoStatus.Status = status;

  0028c	8b d8		 mov	 ebx, eax
$LN49@io_device_:
  0028e	48 8b 4d 38	 mov	 rcx, QWORD PTR target_proc$6[rbp-128]
  00292	ff 15 00 00 00
	00		 call	 QWORD PTR __imp_ObfDereferenceObject
$LN9@io_device_:
  00298	bf 20 00 00 00	 mov	 edi, 32			; 00000020H
$LN2@io_device_:

; 119  : 	irp->IoStatus.Information = info_size;
; 120  : 	IoCompleteRequest(irp, IO_NO_INCREMENT);

  0029d	33 d2		 xor	 edx, edx
  0029f	41 89 5f 30	 mov	 DWORD PTR [r15+48], ebx
  002a3	49 8b cf	 mov	 rcx, r15
  002a6	49 89 7f 38	 mov	 QWORD PTR [r15+56], rdi
  002aa	ff 15 00 00 00
	00		 call	 QWORD PTR __imp_IofCompleteRequest

; 121  : 	return status;

  002b0	8b c3		 mov	 eax, ebx

; 122  : }

  002b2	48 8b 9c 24 c8
	00 00 00	 mov	 rbx, QWORD PTR [rsp+200]
  002ba	48 81 c4 80 00
	00 00		 add	 rsp, 128		; 00000080H
  002c1	41 5f		 pop	 r15
  002c3	41 5e		 pop	 r14
  002c5	5f		 pop	 rdi
  002c6	5e		 pop	 rsi
  002c7	5d		 pop	 rbp
  002c8	c3		 ret	 0
io_device_control ENDP
_TEXT	ENDS
; Function compile flags: /Ogtp
; File C:\Users\Administrator\Downloads\Injector\DriverKernel\main.c
;	COMDAT ioctl_close
_TEXT	SEGMENT
device$ = 48
irp$ = 56
ioctl_close PROC					; COMDAT

; 136  : NTSTATUS ioctl_close(PDEVICE_OBJECT device, PIRP irp) {

$LN4:
  00000	48 83 ec 28	 sub	 rsp, 40			; 00000028H

; 137  : 	irp->IoStatus.Status = STATUS_SUCCESS;

  00004	33 c9		 xor	 ecx, ecx
  00006	48 8b c2	 mov	 rax, rdx
  00009	89 4a 30	 mov	 DWORD PTR [rdx+48], ecx

; 138  : 	irp->IoStatus.Information = 0;

  0000c	48 89 4a 38	 mov	 QWORD PTR [rdx+56], rcx

; 139  : 	IoCompleteRequest(irp, IO_NO_INCREMENT);

  00010	33 d2		 xor	 edx, edx
  00012	48 8b c8	 mov	 rcx, rax
  00015	ff 15 00 00 00
	00		 call	 QWORD PTR __imp_IofCompleteRequest

; 140  : 	return STATUS_SUCCESS;

  0001b	33 c0		 xor	 eax, eax

; 141  : }

  0001d	48 83 c4 28	 add	 rsp, 40			; 00000028H
  00021	c3		 ret	 0
ioctl_close ENDP
_TEXT	ENDS
; Function compile flags: /Ogtp
; File C:\Users\Administrator\Downloads\Injector\DriverKernel\main.c
;	COMDAT ioctl_create
_TEXT	SEGMENT
device$ = 48
irp$ = 56
ioctl_create PROC					; COMDAT

; 129  : NTSTATUS ioctl_create(PDEVICE_OBJECT device, PIRP irp) {

$LN4:
  00000	48 83 ec 28	 sub	 rsp, 40			; 00000028H

; 130  : 	irp->IoStatus.Status = STATUS_SUCCESS;

  00004	33 c9		 xor	 ecx, ecx
  00006	48 8b c2	 mov	 rax, rdx
  00009	89 4a 30	 mov	 DWORD PTR [rdx+48], ecx

; 131  : 	irp->IoStatus.Information = 0;

  0000c	48 89 4a 38	 mov	 QWORD PTR [rdx+56], rcx

; 132  : 	IoCompleteRequest(irp, IO_NO_INCREMENT);

  00010	33 d2		 xor	 edx, edx
  00012	48 8b c8	 mov	 rcx, rax
  00015	ff 15 00 00 00
	00		 call	 QWORD PTR __imp_IofCompleteRequest

; 133  : 	return STATUS_SUCCESS;

  0001b	33 c0		 xor	 eax, eax

; 134  : }

  0001d	48 83 c4 28	 add	 rsp, 40			; 00000028H
  00021	c3		 ret	 0
ioctl_create ENDP
_TEXT	ENDS
; Function compile flags: /Ogtp
; File C:\Users\Administrator\Downloads\Injector\DriverKernel\main.c
;	COMDAT unload_driver
_TEXT	SEGMENT
driver$ = 48
unload_driver PROC					; COMDAT

; 124  : NTSTATUS unload_driver(PDRIVER_OBJECT driver) {

$LN4:
  00000	40 53		 push	 rbx
  00002	48 83 ec 20	 sub	 rsp, 32			; 00000020H
  00006	48 8b d9	 mov	 rbx, rcx

; 125  : 	IoDeleteSymbolicLink(&dos);

  00009	48 8d 0d 00 00
	00 00		 lea	 rcx, OFFSET FLAT:dos
  00010	ff 15 00 00 00
	00		 call	 QWORD PTR __imp_IoDeleteSymbolicLink

; 126  : 	IoDeleteDevice(driver->DeviceObject);

  00016	48 8b 4b 08	 mov	 rcx, QWORD PTR [rbx+8]

; 127  : }

  0001a	48 83 c4 20	 add	 rsp, 32			; 00000020H
  0001e	5b		 pop	 rbx

; 126  : 	IoDeleteDevice(driver->DeviceObject);

  0001f	48 ff 25 00 00
	00 00		 rex_jmp QWORD PTR __imp_IoDeleteDevice
unload_driver ENDP
_TEXT	ENDS
END
